target datalayout = "e-m:e-p270:32:32-p271:32:32-p272:64:64-i64:64-i128:128-f80:128-n8:16:32:64-S128"
target triple = "x86_64-pc-linux-gnu"

%class.ExpertPacketItem = type { ptr, i32, i32, i32, i32, %class.QByteArray, %class.QByteArray, %class.QByteArray, %class.QList, ptr, %class.QHash }
%class.QByteArray = type { %struct.QArrayDataPointer }
%struct.QArrayDataPointer = type { ptr, ptr, i64 }
%class.QList = type { %struct.QArrayDataPointer.0 }
%struct.QArrayDataPointer.0 = type { ptr, ptr, i64 }
%class.QHash = type { ptr }
%"class.QList<ExpertPacketItem *>::const_iterator" = type { ptr }

; Function Attrs: mustprogress nounwind null_pointer_is_valid sspstrong uwtable
define linkonce_odr noundef ptr @_ZNK17QArrayDataPointerIP16ExpertPacketItemE4dataEv(ptr noundef align 8 dereferenceable_or_null(24) %0) #3 comdat align 2 {
  %2 = alloca ptr, align 8
  store ptr %0, ptr %2, align 8
  %3 = load ptr, ptr %2, align 8
  %4 = getelementptr inbounds nuw %struct.QArrayDataPointer.0, ptr %3, i32 0, i32 1
  %5 = load ptr, ptr %4, align 8
  ret ptr %5
}

; Function Attrs: mustprogress nounwind null_pointer_is_valid sspstrong uwtable
define linkonce_odr noundef ptr @_ZNK17QArrayDataPointerIP16ExpertPacketItemE8constEndEv(ptr noundef align 8 dereferenceable_or_null(24) %0) #3 comdat align 2 {
  %2 = alloca ptr, align 8
  store ptr %0, ptr %2, align 8
  %3 = load ptr, ptr %2, align 8
  %4 = call noundef ptr @_ZNK17QArrayDataPointerIP16ExpertPacketItemE4dataEv(ptr noundef align 8 dereferenceable_or_null(24) %3) #10
  %5 = getelementptr inbounds nuw %struct.QArrayDataPointer.0, ptr %3, i32 0, i32 2
  %6 = load i64, ptr %5, align 8
  %7 = getelementptr ptr, ptr %4, i64 %6
  ret ptr %7
}

; Function Attrs: inlinehint mustprogress nounwind null_pointer_is_valid sspstrong uwtable
define linkonce_odr void @_ZN5QListIP16ExpertPacketItemE14const_iteratorC2EPKS1_(ptr noundef align 8 dereferenceable_or_null(8) %0, ptr noundef %1) unnamed_addr #2 comdat align 2 {
  %3 = alloca ptr, align 8
  %4 = alloca ptr, align 8
  store ptr %0, ptr %3, align 8
  store ptr %1, ptr %4, align 8
  %5 = load ptr, ptr %3, align 8
  %6 = getelementptr inbounds nuw %"class.QList<ExpertPacketItem *>::const_iterator", ptr %5, i32 0, i32 0
  %7 = load ptr, ptr %4, align 8
  store ptr %7, ptr %6, align 8
  ret void
}

; Function Attrs: mustprogress nounwind null_pointer_is_valid sspstrong uwtable
define linkonce_odr noundef ptr @_ZNK17QArrayDataPointerIP16ExpertPacketItemE10constBeginEv(ptr noundef align 8 dereferenceable_or_null(24) %0) #3 comdat align 2 {
  %2 = alloca ptr, align 8
  store ptr %0, ptr %2, align 8
  %3 = load ptr, ptr %2, align 8
  %4 = call noundef ptr @_ZNK17QArrayDataPointerIP16ExpertPacketItemE4dataEv(ptr noundef align 8 dereferenceable_or_null(24) %3) #10
  ret ptr %4
}

; Function Attrs: mustprogress nounwind null_pointer_is_valid sspstrong uwtable
define linkonce_odr noundef ptr @_ZNK17QArrayDataPointerIP16ExpertPacketItemEptEv(ptr noundef align 8 dereferenceable_or_null(24) %0) #3 comdat align 2 {
  %2 = alloca ptr, align 8
  store ptr %0, ptr %2, align 8
  %3 = load ptr, ptr %2, align 8
  ret ptr %3
}

; Function Attrs: inlinehint mustprogress nounwind null_pointer_is_valid sspstrong uwtable
define linkonce_odr noundef i64 @_ZNK5QListIP16ExpertPacketItemE14const_iteratormiES3_(ptr noundef align 8 dereferenceable_or_null(8) %0, ptr %1) #2 comdat align 2 {
  %3 = alloca %"class.QList<ExpertPacketItem *>::const_iterator", align 8
  %4 = alloca ptr, align 8
  %5 = getelementptr inbounds nuw %"class.QList<ExpertPacketItem *>::const_iterator", ptr %3, i32 0, i32 0
  store ptr %1, ptr %5, align 8
  store ptr %0, ptr %4, align 8
  %6 = load ptr, ptr %4, align 8
  %7 = getelementptr inbounds nuw %"class.QList<ExpertPacketItem *>::const_iterator", ptr %6, i32 0, i32 0
  %8 = load ptr, ptr %7, align 8
  %9 = getelementptr inbounds nuw %"class.QList<ExpertPacketItem *>::const_iterator", ptr %3, i32 0, i32 0
  %10 = load ptr, ptr %9, align 8
  %11 = ptrtoint ptr %8 to i64
  %12 = ptrtoint ptr %10 to i64
  %13 = sub i64 %11, %12
  %14 = sdiv exact i64 %13, 8
  ret i64 %14
}

; Function Attrs: inlinehint mustprogress nounwind null_pointer_is_valid sspstrong uwtable
define linkonce_odr noundef align 8 dereferenceable(8) ptr @_ZNK5QListIP16ExpertPacketItemE14const_iteratordeEv(ptr noundef align 8 dereferenceable_or_null(8) %0) #2 comdat align 2 {
  %2 = alloca ptr, align 8
  store ptr %0, ptr %2, align 8
  %3 = load ptr, ptr %2, align 8
  %4 = getelementptr inbounds nuw %"class.QList<ExpertPacketItem *>::const_iterator", ptr %3, i32 0, i32 0
  %5 = load ptr, ptr %4, align 8
  ret ptr %5
}

; Function Attrs: inlinehint mustprogress nounwind null_pointer_is_valid sspstrong uwtable
define linkonce_odr noundef zeroext i1 @_ZNK5QListIP16ExpertPacketItemE14const_iteratorneES3_(ptr noundef align 8 dereferenceable_or_null(8) %0, ptr %1) #2 comdat align 2 {
  %3 = alloca %"class.QList<ExpertPacketItem *>::const_iterator", align 8
  %4 = alloca ptr, align 8
  %5 = getelementptr inbounds nuw %"class.QList<ExpertPacketItem *>::const_iterator", ptr %3, i32 0, i32 0
  store ptr %1, ptr %5, align 8
  store ptr %0, ptr %4, align 8
  %6 = load ptr, ptr %4, align 8
  %7 = getelementptr inbounds nuw %"class.QList<ExpertPacketItem *>::const_iterator", ptr %6, i32 0, i32 0
  %8 = load ptr, ptr %7, align 8
  %9 = getelementptr inbounds nuw %"class.QList<ExpertPacketItem *>::const_iterator", ptr %3, i32 0, i32 0
  %10 = load ptr, ptr %9, align 8
  %11 = icmp ne ptr %8, %10
  ret i1 %11
}

; Function Attrs: inlinehint mustprogress nounwind null_pointer_is_valid sspstrong uwtable
define linkonce_odr noundef align 8 dereferenceable(8) ptr @_ZN5QListIP16ExpertPacketItemE14const_iteratorppEv(ptr noundef align 8 dereferenceable_or_null(8) %0) #2 comdat align 2 {
  %2 = alloca ptr, align 8
  store ptr %0, ptr %2, align 8
  %3 = load ptr, ptr %2, align 8
  %4 = getelementptr inbounds nuw %"class.QList<ExpertPacketItem *>::const_iterator", ptr %3, i32 0, i32 0
  %5 = load ptr, ptr %4, align 8
  %6 = getelementptr ptr, ptr %5, i32 1
  store ptr %6, ptr %4, align 8
  ret ptr %3
}

; Function Attrs: mustprogress nounwind null_pointer_is_valid sspstrong uwtable
define linkonce_odr ptr @_ZNK5QListIP16ExpertPacketItemE3endEv(ptr noundef align 8 dereferenceable_or_null(24) %0) #3 comdat align 2 personality ptr @__gxx_personality_v0 {
  %2 = alloca %"class.QList<ExpertPacketItem *>::const_iterator", align 8
  %3 = alloca ptr, align 8
  store ptr %0, ptr %3, align 8
  %4 = load ptr, ptr %3, align 8
  %5 = getelementptr inbounds nuw %class.QList, ptr %4, i32 0, i32 0
  %6 = call noundef ptr @_ZNK17QArrayDataPointerIP16ExpertPacketItemEptEv(ptr noundef align 8 dereferenceable_or_null(24) %5) #10
  %7 = call noundef ptr @_ZNK17QArrayDataPointerIP16ExpertPacketItemE8constEndEv(ptr noundef align 8 dereferenceable_or_null(24) %6) #10
  invoke void @_ZN5QListIP16ExpertPacketItemE14const_iteratorC2EPKS1_(ptr noundef align 8 dereferenceable_or_null(8) %2, ptr noundef %7)
          to label %8 unwind label %11

8:                                                ; preds = %1
  %9 = getelementptr inbounds nuw %"class.QList<ExpertPacketItem *>::const_iterator", ptr %2, i32 0, i32 0
  %10 = load ptr, ptr %9, align 8
  ret ptr %10

11:                                               ; preds = %1
  %12 = landingpad { ptr, i32 }
          catch ptr null
  %13 = extractvalue { ptr, i32 } %12, 0
  call void @__clang_call_terminate(ptr %13) #26
  unreachable
}

; Function Attrs: mustprogress null_pointer_is_valid sspstrong uwtable
define linkonce_odr ptr @_ZNK5QListIP16ExpertPacketItemE14const_iteratormiIiEENSt9enable_ifIXsr3stdE13is_integral_vIT_EES3_E4typeES6_(ptr noundef align 8 dereferenceable_or_null(8) %0, i32 noundef %1) #0 comdat align 2 {
  %3 = alloca %"class.QList<ExpertPacketItem *>::const_iterator", align 8
  %4 = alloca ptr, align 8
  %5 = alloca i32, align 4
  store ptr %0, ptr %4, align 8
  store i32 %1, ptr %5, align 4
  %6 = load ptr, ptr %4, align 8
  %7 = getelementptr inbounds nuw %"class.QList<ExpertPacketItem *>::const_iterator", ptr %6, i32 0, i32 0
  %8 = load ptr, ptr %7, align 8
  %9 = load i32, ptr %5, align 4
  %10 = sext i32 %9 to i64
  %11 = sub i64 0, %10
  %12 = getelementptr ptr, ptr %8, i64 %11
  call void @_ZN5QListIP16ExpertPacketItemE14const_iteratorC2EPKS1_(ptr noundef align 8 dereferenceable_or_null(8) %3, ptr noundef %12)
  %13 = getelementptr inbounds nuw %"class.QList<ExpertPacketItem *>::const_iterator", ptr %3, i32 0, i32 0
  %14 = load ptr, ptr %13, align 8
  ret ptr %14
}

; Function Attrs: mustprogress null_pointer_is_valid sspstrong uwtable
define linkonce_odr ptr @_ZNK5QListIP16ExpertPacketItemE14const_iteratorplIxEENSt9enable_ifIXsr3stdE13is_integral_vIT_EES3_E4typeES6_(ptr noundef align 8 dereferenceable_or_null(8) %0, i64 noundef %1) #0 comdat align 2 {
  %3 = alloca %"class.QList<ExpertPacketItem *>::const_iterator", align 8
  %4 = alloca ptr, align 8
  %5 = alloca i64, align 8
  store ptr %0, ptr %4, align 8
  store i64 %1, ptr %5, align 8
  %6 = load ptr, ptr %4, align 8
  %7 = getelementptr inbounds nuw %"class.QList<ExpertPacketItem *>::const_iterator", ptr %6, i32 0, i32 0
  %8 = load ptr, ptr %7, align 8
  %9 = load i64, ptr %5, align 8
  %10 = getelementptr ptr, ptr %8, i64 %9
  call void @_ZN5QListIP16ExpertPacketItemE14const_iteratorC2EPKS1_(ptr noundef align 8 dereferenceable_or_null(8) %3, ptr noundef %10)
  %11 = getelementptr inbounds nuw %"class.QList<ExpertPacketItem *>::const_iterator", ptr %3, i32 0, i32 0
  %12 = load ptr, ptr %11, align 8
  ret ptr %12
}

; Function Attrs: mustprogress nounwind null_pointer_is_valid sspstrong uwtable
define linkonce_odr ptr @_ZNK5QListIP16ExpertPacketItemE5beginEv(ptr noundef align 8 dereferenceable_or_null(24) %0) #3 comdat align 2 personality ptr @__gxx_personality_v0 {
  %2 = alloca %"class.QList<ExpertPacketItem *>::const_iterator", align 8
  %3 = alloca ptr, align 8
  store ptr %0, ptr %3, align 8
  %4 = load ptr, ptr %3, align 8
  %5 = getelementptr inbounds nuw %class.QList, ptr %4, i32 0, i32 0
  %6 = call noundef ptr @_ZNK17QArrayDataPointerIP16ExpertPacketItemEptEv(ptr noundef align 8 dereferenceable_or_null(24) %5) #10
  %7 = call noundef ptr @_ZNK17QArrayDataPointerIP16ExpertPacketItemE10constBeginEv(ptr noundef align 8 dereferenceable_or_null(24) %6) #10
  invoke void @_ZN5QListIP16ExpertPacketItemE14const_iteratorC2EPKS1_(ptr noundef align 8 dereferenceable_or_null(8) %2, ptr noundef %7)
          to label %8 unwind label %11

8:                                                ; preds = %1
  %9 = getelementptr inbounds nuw %"class.QList<ExpertPacketItem *>::const_iterator", ptr %2, i32 0, i32 0
  %10 = load ptr, ptr %9, align 8
  ret ptr %10

11:                                               ; preds = %1
  %12 = landingpad { ptr, i32 }
          catch ptr null
  %13 = extractvalue { ptr, i32 } %12, 0
  call void @__clang_call_terminate(ptr %13) #26
  unreachable
}

; Function Attrs: inlinehint mustprogress nounwind null_pointer_is_valid sspstrong uwtable
define linkonce_odr noundef align 8 dereferenceable(8) ptr @_Z4qMaxIxERKT_S2_S2_(ptr noundef align 8 dereferenceable(8) %0, ptr noundef align 8 dereferenceable(8) %1) #2 comdat {
  %3 = alloca ptr, align 8
  %4 = alloca ptr, align 8
  store ptr %0, ptr %3, align 8
  store ptr %1, ptr %4, align 8
  %5 = load ptr, ptr %3, align 8
  %6 = load i64, ptr %5, align 8
  %7 = load ptr, ptr %4, align 8
  %8 = load i64, ptr %7, align 8
  %9 = icmp slt i64 %6, %8
  br i1 %9, label %10, label %12

10:                                               ; preds = %2
  %11 = load ptr, ptr %4, align 8
  br label %14

12:                                               ; preds = %2
  %13 = load ptr, ptr %3, align 8
  br label %14

14:                                               ; preds = %12, %10
  %15 = phi ptr [ %11, %10 ], [ %13, %12 ]
  ret ptr %15
}

; Function Attrs: mustprogress nounwind null_pointer_is_valid sspstrong uwtable
define linkonce_odr noundef i64 @_ZNK5QListIP16ExpertPacketItemE4sizeEv(ptr noundef align 8 dereferenceable_or_null(24) %0) #3 comdat align 2 {
  %2 = alloca ptr, align 8
  store ptr %0, ptr %2, align 8
  %3 = load ptr, ptr %2, align 8
  %4 = getelementptr inbounds nuw %class.QList, ptr %3, i32 0, i32 0
  %5 = call noundef ptr @_ZNK17QArrayDataPointerIP16ExpertPacketItemEptEv(ptr noundef align 8 dereferenceable_or_null(24) %4) #10
  %6 = getelementptr inbounds nuw %struct.QArrayDataPointer.0, ptr %5, i32 0, i32 2
  %7 = load i64, ptr %6, align 8
  ret i64 %7
}

; Function Attrs: noinline noreturn nounwind null_pointer_is_valid sspstrong uwtable
define linkonce_odr hidden void @__clang_call_terminate(ptr noundef %0) #5 comdat {
  %2 = call ptr @__cxa_begin_catch(ptr %0) #10
  call void @_ZSt9terminatev() #26
  unreachable
}

; Function Attrs: mustprogress nounwind null_pointer_is_valid sspstrong uwtable
define linkonce_odr noundef i64 @_ZN9QtPrivate7indexOfIP16ExpertPacketItemS2_EExRK5QListIT_ERKT0_x(ptr noundef align 8 dereferenceable(24) %0, ptr noundef align 8 dereferenceable(8) %1, i64 noundef %2) #3 comdat personality ptr @__gxx_personality_v0 {
  %4 = alloca i64, align 8
  %5 = alloca ptr, align 8
  %6 = alloca ptr, align 8
  %7 = alloca i64, align 8
  %8 = alloca i64, align 8
  %9 = alloca i64, align 8
  %10 = alloca %"class.QList<ExpertPacketItem *>::const_iterator", align 8
  %11 = alloca %"class.QList<ExpertPacketItem *>::const_iterator", align 8
  %12 = alloca %"class.QList<ExpertPacketItem *>::const_iterator", align 8
  %13 = alloca %"class.QList<ExpertPacketItem *>::const_iterator", align 8
  %14 = alloca %"class.QList<ExpertPacketItem *>::const_iterator", align 8
  %15 = alloca %"class.QList<ExpertPacketItem *>::const_iterator", align 8
  %16 = alloca i32, align 4
  store ptr %0, ptr %5, align 8
  store ptr %1, ptr %6, align 8
  store i64 %2, ptr %7, align 8
  %17 = load i64, ptr %7, align 8
  %18 = icmp slt i64 %17, 0
  br i1 %18, label %19, label %26

19:                                               ; preds = %3
  call void @llvm.lifetime.start.p0(i64 8, ptr %8) #10
  %20 = load i64, ptr %7, align 8
  %21 = load ptr, ptr %5, align 8
  %22 = call noundef i64 @_ZNK5QListIP16ExpertPacketItemE4sizeEv(ptr noundef align 8 dereferenceable_or_null(24) %21) #10
  %23 = add i64 %20, %22
  store i64 %23, ptr %8, align 8
  call void @llvm.lifetime.start.p0(i64 8, ptr %9) #10
  store i64 0, ptr %9, align 8
  %24 = call noundef align 8 dereferenceable(8) ptr @_Z4qMaxIxERKT_S2_S2_(ptr noundef align 8 dereferenceable(8) %8, ptr noundef align 8 dereferenceable(8) %9)
  %25 = load i64, ptr %24, align 8
  store i64 %25, ptr %7, align 8
  call void @llvm.lifetime.end.p0(i64 8, ptr %9) #10
  call void @llvm.lifetime.end.p0(i64 8, ptr %8) #10
  br label %26

26:                                               ; preds = %19, %3
  %27 = load i64, ptr %7, align 8
  %28 = load ptr, ptr %5, align 8
  %29 = call noundef i64 @_ZNK5QListIP16ExpertPacketItemE4sizeEv(ptr noundef align 8 dereferenceable_or_null(24) %28) #10
  %30 = icmp slt i64 %27, %29
  br i1 %30, label %31, label %72

31:                                               ; preds = %26
  call void @llvm.lifetime.start.p0(i64 8, ptr %10) #10
  call void @llvm.lifetime.start.p0(i64 8, ptr %11) #10
  call void @llvm.lifetime.start.p0(i64 8, ptr %12) #10
  %32 = load ptr, ptr %5, align 8
  %33 = call ptr @_ZNK5QListIP16ExpertPacketItemE5beginEv(ptr noundef align 8 dereferenceable_or_null(24) %32) #10
  %34 = getelementptr inbounds nuw %"class.QList<ExpertPacketItem *>::const_iterator", ptr %12, i32 0, i32 0
  store ptr %33, ptr %34, align 8
  %35 = load i64, ptr %7, align 8
  %36 = invoke ptr @_ZNK5QListIP16ExpertPacketItemE14const_iteratorplIxEENSt9enable_ifIXsr3stdE13is_integral_vIT_EES3_E4typeES6_(ptr noundef align 8 dereferenceable_or_null(8) %12, i64 noundef %35)
          to label %37 unwind label %75

37:                                               ; preds = %31
  %38 = getelementptr inbounds nuw %"class.QList<ExpertPacketItem *>::const_iterator", ptr %11, i32 0, i32 0
  store ptr %36, ptr %38, align 8
  %39 = invoke ptr @_ZNK5QListIP16ExpertPacketItemE14const_iteratormiIiEENSt9enable_ifIXsr3stdE13is_integral_vIT_EES3_E4typeES6_(ptr noundef align 8 dereferenceable_or_null(8) %11, i32 noundef 1)
          to label %40 unwind label %75

40:                                               ; preds = %37
  %41 = getelementptr inbounds nuw %"class.QList<ExpertPacketItem *>::const_iterator", ptr %10, i32 0, i32 0
  store ptr %39, ptr %41, align 8
  call void @llvm.lifetime.end.p0(i64 8, ptr %12) #10
  call void @llvm.lifetime.end.p0(i64 8, ptr %11) #10
  call void @llvm.lifetime.start.p0(i64 8, ptr %13) #10
  %42 = load ptr, ptr %5, align 8
  %43 = call ptr @_ZNK5QListIP16ExpertPacketItemE3endEv(ptr noundef align 8 dereferenceable_or_null(24) %42) #10
  %44 = getelementptr inbounds nuw %"class.QList<ExpertPacketItem *>::const_iterator", ptr %13, i32 0, i32 0
  store ptr %43, ptr %44, align 8
  br label %45

45:                                               ; preds = %67, %40
  %46 = invoke noundef align 8 dereferenceable(8) ptr @_ZN5QListIP16ExpertPacketItemE14const_iteratorppEv(ptr noundef align 8 dereferenceable_or_null(8) %10)
          to label %47 unwind label %75

47:                                               ; preds = %45
  call void @llvm.memcpy.p0.p0.i64(ptr align 8 %14, ptr align 8 %13, i64 8, i1 false)
  %48 = getelementptr inbounds nuw %"class.QList<ExpertPacketItem *>::const_iterator", ptr %14, i32 0, i32 0
  %49 = load ptr, ptr %48, align 8
  %50 = invoke noundef zeroext i1 @_ZNK5QListIP16ExpertPacketItemE14const_iteratorneES3_(ptr noundef align 8 dereferenceable_or_null(8) %46, ptr %49)
          to label %51 unwind label %75

51:                                               ; preds = %47
  br i1 %50, label %52, label %68

52:                                               ; preds = %51
  %53 = invoke noundef align 8 dereferenceable(8) ptr @_ZNK5QListIP16ExpertPacketItemE14const_iteratordeEv(ptr noundef align 8 dereferenceable_or_null(8) %10)
          to label %54 unwind label %75

54:                                               ; preds = %52
  %55 = load ptr, ptr %53, align 8
  %56 = load ptr, ptr %6, align 8
  %57 = load ptr, ptr %56, align 8
  %58 = icmp eq ptr %55, %57
  br i1 %58, label %59, label %67

59:                                               ; preds = %54
  %60 = load ptr, ptr %5, align 8
  %61 = call ptr @_ZNK5QListIP16ExpertPacketItemE5beginEv(ptr noundef align 8 dereferenceable_or_null(24) %60) #10
  %62 = getelementptr inbounds nuw %"class.QList<ExpertPacketItem *>::const_iterator", ptr %15, i32 0, i32 0
  store ptr %61, ptr %62, align 8
  %63 = getelementptr inbounds nuw %"class.QList<ExpertPacketItem *>::const_iterator", ptr %15, i32 0, i32 0
  %64 = load ptr, ptr %63, align 8
  %65 = invoke noundef i64 @_ZNK5QListIP16ExpertPacketItemE14const_iteratormiES3_(ptr noundef align 8 dereferenceable_or_null(8) %10, ptr %64)
          to label %66 unwind label %75

66:                                               ; preds = %59
  store i64 %65, ptr %4, align 8
  store i32 1, ptr %16, align 4
  br label %69

67:                                               ; preds = %54
  br label %45, !llvm.loop !21

68:                                               ; preds = %51
  store i32 0, ptr %16, align 4
  br label %69

69:                                               ; preds = %68, %66
  call void @llvm.lifetime.end.p0(i64 8, ptr %13) #10
  call void @llvm.lifetime.end.p0(i64 8, ptr %10) #10
  %70 = load i32, ptr %16, align 4
  switch i32 %70, label %78 [
    i32 0, label %71
    i32 1, label %73
  ]

71:                                               ; preds = %69
  br label %72

72:                                               ; preds = %71, %26
  store i64 -1, ptr %4, align 8
  br label %73

73:                                               ; preds = %72, %69
  %74 = load i64, ptr %4, align 8
  ret i64 %74

75:                                               ; preds = %59, %52, %47, %45, %37, %31
  %76 = landingpad { ptr, i32 }
          catch ptr null
  %77 = extractvalue { ptr, i32 } %76, 0
  call void @__clang_call_terminate(ptr %77) #26
  unreachable

78:                                               ; preds = %69
  unreachable
}

; Function Attrs: mustprogress nounwind null_pointer_is_valid sspstrong uwtable
define linkonce_odr noundef ptr @_ZNK23QListSpecialMethodsBaseIP16ExpertPacketItemE4selfEv(ptr noundef align 1 dereferenceable_or_null(1) %0) #3 comdat align 2 {
  %2 = alloca ptr, align 8
  store ptr %0, ptr %2, align 8
  %3 = load ptr, ptr %2, align 8
  ret ptr %3
}

; Function Attrs: mustprogress nounwind null_pointer_is_valid sspstrong uwtable
define linkonce_odr noundef i64 @_ZNK23QListSpecialMethodsBaseIP16ExpertPacketItemE7indexOfIS1_EExRKT_x(ptr noundef align 1 dereferenceable_or_null(1) %0, ptr noundef align 8 dereferenceable(8) %1, i64 noundef %2) #3 comdat align 2 personality ptr @__gxx_personality_v0 {
  %4 = alloca ptr, align 8
  %5 = alloca ptr, align 8
  %6 = alloca i64, align 8
  store ptr %0, ptr %4, align 8
  store ptr %1, ptr %5, align 8
  store i64 %2, ptr %6, align 8
  %7 = load ptr, ptr %4, align 8
  %8 = invoke noundef ptr @_ZNK23QListSpecialMethodsBaseIP16ExpertPacketItemE4selfEv(ptr noundef align 1 dereferenceable_or_null(1) %7)
          to label %9 unwind label %13

9:                                                ; preds = %3
  %10 = load ptr, ptr %5, align 8
  %11 = load i64, ptr %6, align 8
  %12 = call noundef i64 @_ZN9QtPrivate7indexOfIP16ExpertPacketItemS2_EExRK5QListIT_ERKT0_x(ptr noundef align 8 dereferenceable(24) %8, ptr noundef align 8 dereferenceable(8) %10, i64 noundef %11) #10
  ret i64 %12

13:                                               ; preds = %3
  %14 = landingpad { ptr, i32 }
          catch ptr null
  %15 = extractvalue { ptr, i32 } %14, 0
  call void @__clang_call_terminate(ptr %15) #26
  unreachable
}

; Function Attrs: mustprogress nounwind null_pointer_is_valid sspstrong uwtable
define noundef i32 @_ZNK16ExpertPacketItem3rowEv(ptr noundef align 8 dereferenceable_or_null(136) %0) #3 align 2 {
  %2 = alloca i32, align 4
  %3 = alloca ptr, align 8
  %4 = alloca ptr, align 8
  store ptr %0, ptr %3, align 8
  %5 = load ptr, ptr %3, align 8
  %6 = getelementptr inbounds nuw %class.ExpertPacketItem, ptr %5, i32 0, i32 9
  %7 = load ptr, ptr %6, align 8
  %8 = icmp ne ptr %7, null
  br i1 %8, label %9, label %15

9:                                                ; preds = %1
  %10 = getelementptr inbounds nuw %class.ExpertPacketItem, ptr %5, i32 0, i32 9
  %11 = load ptr, ptr %10, align 8
  %12 = getelementptr inbounds nuw %class.ExpertPacketItem, ptr %11, i32 0, i32 8
  call void @llvm.lifetime.start.p0(i64 8, ptr %4) #10
  store ptr %5, ptr %4, align 8
  %13 = call noundef i64 @_ZNK23QListSpecialMethodsBaseIP16ExpertPacketItemE7indexOfIS1_EExRKT_x(ptr noundef align 1 dereferenceable_or_null(1) %12, ptr noundef align 8 dereferenceable(8) %4, i64 noundef 0) #10
  %14 = trunc i64 %13 to i32
  store i32 %14, ptr %2, align 4
  call void @llvm.lifetime.end.p0(i64 8, ptr %4) #10
  br label %16

15:                                               ; preds = %1
  store i32 0, ptr %2, align 4
  br label %16

16:                                               ; preds = %15, %9
  %17 = load i32, ptr %2, align 4
  ret i32 %17
}