; Function Attrs: mustprogress nofree norecurse nosync nounwind null_pointer_is_valid sspstrong willreturn memory(read, inaccessiblemem: none) uwtable
define noundef i32 @_ZNK16ExpertPacketItem3rowEv(ptr noundef readonly align 8 captures(address) dereferenceable_or_null(136) %0) local_unnamed_addr #8 align 2 personality ptr @__gxx_personality_v0 {
  %2 = getelementptr inbounds nuw i8, ptr %0, i64 120
  %3 = load ptr, ptr %2, align 8
  %.not = icmp eq ptr %3, null
  br i1 %.not, label %_ZNK23QListSpecialMethodsBaseIP16ExpertPacketItemE7indexOfIS1_EExRKT_x.exit, label %4

4:                                                ; preds = %1
  %5 = getelementptr inbounds nuw i8, ptr %3, i64 112
  %6 = load i64, ptr %5, align 8
  %7 = icmp sgt i64 %6, 0
  br i1 %7, label %8, label %_ZNK23QListSpecialMethodsBaseIP16ExpertPacketItemE7indexOfIS1_EExRKT_x.exit

8:                                                ; preds = %4
  %9 = getelementptr inbounds nuw i8, ptr %3, i64 104
  %10 = load ptr, ptr %9, align 8
  %11 = getelementptr i8, ptr %10, i64 -8
  %12 = getelementptr ptr, ptr %10, i64 %6
  br label %13

13:                                               ; preds = %15, %8
  %.sroa.018.0.i.i = phi ptr [ %11, %8 ], [ %14, %15 ]
  %14 = getelementptr i8, ptr %.sroa.018.0.i.i, i64 8
  %.not.i.i = icmp eq ptr %14, %12
  br i1 %.not.i.i, label %_ZNK23QListSpecialMethodsBaseIP16ExpertPacketItemE7indexOfIS1_EExRKT_x.exit, label %15

15:                                               ; preds = %13
  %16 = load ptr, ptr %14, align 8
  %17 = icmp eq ptr %16, %0
  br i1 %17, label %18, label %13, !llvm.loop !13

18:                                               ; preds = %15
  %19 = ptrtoint ptr %14 to i64
  %20 = ptrtoint ptr %10 to i64
  %21 = sub i64 %19, %20
  %22 = lshr exact i64 %21, 3
  %23 = trunc i64 %22 to i32
  br label %_ZNK23QListSpecialMethodsBaseIP16ExpertPacketItemE7indexOfIS1_EExRKT_x.exit

_ZNK23QListSpecialMethodsBaseIP16ExpertPacketItemE7indexOfIS1_EExRKT_x.exit: ; preds = %13, %18, %4, %1
  %.0 = phi i32 [ 0, %1 ], [ %23, %18 ], [ -1, %4 ], [ -1, %13 ]
  ret i32 %.0
}